target datalayout = "e-m:e-p270:32:32-p271:32:32-p272:64:64-i64:64-i128:128-f80:128-n8:16:32:64-S128"
target triple = "x86_64-pc-linux-gnu"

%struct.jpeg_compress_struct = type { ptr, ptr, ptr, ptr, i32, i32, ptr, i32, i32, i32, i32, double, i32, i32, i32, ptr, [4 x ptr], [4 x ptr], [4 x ptr], [16 x i8], [16 x i8], [16 x i8], i32, ptr, i32, i32, i32, i32, i32, i32, i32, i32, i32, i8, i8, i8, i16, i16, i32, i32, i32, i32, i32, i32, i32, [4 x ptr], i32, i32, i32, [10 x i32], i32, i32, i32, i32, ptr, ptr, ptr, ptr, ptr, ptr, ptr, ptr, ptr, ptr, i32 }
%struct.jpeg_memory_mgr = type { ptr, ptr, ptr, ptr, ptr, ptr, ptr, ptr, ptr, ptr, ptr, i64, i64 }
%struct.phuff_entropy_encoder = type { %struct.jpeg_entropy_encoder, ptr, ptr, i32, ptr, i64, i64, i32, ptr, [4 x i32], i32, i32, i32, ptr, i32, i32, [4 x ptr], [4 x ptr] }
%struct.jpeg_entropy_encoder = type { ptr, ptr, ptr, ptr }

; Function Attrs: nounwind uwtable
define void @jinit_phuff_encoder(ptr noundef %0) #0 {
  %2 = alloca ptr, align 8
  %3 = alloca ptr, align 8
  %4 = alloca i32, align 4
  store ptr %0, ptr %2, align 8, !tbaa !3
  call void @llvm.lifetime.start.p0(i64 8, ptr %3) #6
  call void @llvm.lifetime.start.p0(i64 4, ptr %4) #6
  %5 = load ptr, ptr %2, align 8, !tbaa !3
  %6 = getelementptr inbounds nuw %struct.jpeg_compress_struct, ptr %5, i32 0, i32 1
  %7 = load ptr, ptr %6, align 8, !tbaa !8
  %8 = getelementptr inbounds nuw %struct.jpeg_memory_mgr, ptr %7, i32 0, i32 0
  %9 = load ptr, ptr %8, align 8, !tbaa !26
  %10 = load ptr, ptr %2, align 8, !tbaa !3
  %11 = call ptr %9(ptr noundef %10, i32 noundef 1, i64 noundef 208)
  store ptr %11, ptr %3, align 8, !tbaa !29
  %12 = load ptr, ptr %3, align 8, !tbaa !29
  %13 = load ptr, ptr %2, align 8, !tbaa !3
  %14 = getelementptr inbounds nuw %struct.jpeg_compress_struct, ptr %13, i32 0, i32 62
  store ptr %12, ptr %14, align 8, !tbaa !30
  %15 = load ptr, ptr %3, align 8, !tbaa !29
  %16 = getelementptr inbounds nuw %struct.phuff_entropy_encoder, ptr %15, i32 0, i32 0
  %17 = getelementptr inbounds nuw %struct.jpeg_entropy_encoder, ptr %16, i32 0, i32 0
  store ptr @start_pass_phuff, ptr %17, align 8, !tbaa !31
  store i32 0, ptr %4, align 4, !tbaa !35
  br label %18

18:                                               ; preds = %32, %1
  %19 = load i32, ptr %4, align 4, !tbaa !35
  %20 = icmp slt i32 %19, 4
  br i1 %20, label %21, label %35

21:                                               ; preds = %18
  %22 = load ptr, ptr %3, align 8, !tbaa !29
  %23 = getelementptr inbounds nuw %struct.phuff_entropy_encoder, ptr %22, i32 0, i32 16
  %24 = load i32, ptr %4, align 4, !tbaa !35
  %25 = sext i32 %24 to i64
  %26 = getelementptr inbounds [4 x ptr], ptr %23, i64 0, i64 %25
  store ptr null, ptr %26, align 8, !tbaa !29
  %27 = load ptr, ptr %3, align 8, !tbaa !29
  %28 = getelementptr inbounds nuw %struct.phuff_entropy_encoder, ptr %27, i32 0, i32 17
  %29 = load i32, ptr %4, align 4, !tbaa !35
  %30 = sext i32 %29 to i64
  %31 = getelementptr inbounds [4 x ptr], ptr %28, i64 0, i64 %30
  store ptr null, ptr %31, align 8, !tbaa !36
  br label %32

32:                                               ; preds = %21
  %33 = load i32, ptr %4, align 4, !tbaa !35
  %34 = add nsw i32 %33, 1
  store i32 %34, ptr %4, align 4, !tbaa !35
  br label %18, !llvm.loop !38

35:                                               ; preds = %18
  %36 = load ptr, ptr %3, align 8, !tbaa !29
  %37 = getelementptr inbounds nuw %struct.phuff_entropy_encoder, ptr %36, i32 0, i32 13
  store ptr null, ptr %37, align 8, !tbaa !40
  call void @llvm.lifetime.end.p0(i64 4, ptr %4) #6
  call void @llvm.lifetime.end.p0(i64 8, ptr %3) #6
  ret void
}