; Function Attrs: nounwind uwtable
define void @jinit_phuff_encoder(ptr noundef %0) local_unnamed_addr #0 {
  %2 = getelementptr inbounds nuw i8, ptr %0, i64 8
  %3 = load ptr, ptr %2, align 8, !tbaa !3
  %4 = load ptr, ptr %3, align 8, !tbaa !24
  %5 = tail call ptr %4(ptr noundef %0, i32 noundef 1, i64 noundef 208) #7
  %6 = getelementptr inbounds nuw i8, ptr %0, i64 496
  store ptr %5, ptr %6, align 8, !tbaa !27
  store ptr @start_pass_phuff, ptr %5, align 8, !tbaa !28
  %7 = getelementptr inbounds nuw i8, ptr %5, i64 144
  %8 = getelementptr inbounds nuw i8, ptr %5, i64 128
  store ptr null, ptr %8, align 8, !tbaa !33
  tail call void @llvm.memset.p0.i64(ptr noundef nonnull align 8 dereferenceable(64) %7, i8 0, i64 64, i1 false)
  ret void
}